; Function Attrs: mustprogress nofree norecurse nosync nounwind willreturn memory(read, argmem: readwrite, inaccessiblemem: none) uwtable
define noundef i32 @_ZNK6icu_7712RegexMatcher5startER10UErrorCode(ptr noundef nonnull readonly align 8 captures(none) dereferenceable(336) %0, ptr noundef nonnull align 4 captures(none) dereferenceable(4) %1) unnamed_addr #13 align 2 {
  %3 = load i32, ptr %1, align 4, !tbaa !13
  %4 = icmp slt i32 %3, 1
  br i1 %4, label %5, label %_ZNK6icu_7712RegexMatcher5startEiR10UErrorCode.exit

5:                                                ; preds = %2
  %6 = getelementptr inbounds nuw i8, ptr %0, i64 316
  %7 = load i32, ptr %6, align 4, !tbaa !39
  %8 = icmp slt i32 %7, 1
  br i1 %8, label %10, label %9

9:                                                ; preds = %5
  store i32 %7, ptr %1, align 4, !tbaa !13
  br label %_ZNK6icu_7712RegexMatcher5startEiR10UErrorCode.exit

10:                                               ; preds = %5
  %11 = getelementptr inbounds nuw i8, ptr %0, i64 130
  %12 = load i8, ptr %11, align 2, !tbaa !29
  %13 = icmp eq i8 %12, 0
  br i1 %13, label %14, label %15

14:                                               ; preds = %10
  store i32 66306, ptr %1, align 4, !tbaa !13
  br label %_ZNK6icu_7712RegexMatcher5startEiR10UErrorCode.exit

15:                                               ; preds = %10
  %16 = getelementptr inbounds nuw i8, ptr %0, i64 8
  %17 = load ptr, ptr %16, align 8, !tbaa !42
  %18 = getelementptr inbounds nuw i8, ptr %17, i64 136
  %19 = load ptr, ptr %18, align 8, !tbaa !104
  %20 = getelementptr inbounds nuw i8, ptr %19, i64 8
  %21 = load i32, ptr %20, align 8, !tbaa !105
  %22 = icmp slt i32 %21, 0
  br i1 %22, label %23, label %24

23:                                               ; preds = %15
  store i32 8, ptr %1, align 4, !tbaa !13
  br label %_ZNK6icu_7712RegexMatcher5startEiR10UErrorCode.exit

24:                                               ; preds = %15
  %25 = getelementptr inbounds nuw i8, ptr %0, i64 136
  %.011.i.i = load i64, ptr %25, align 8, !tbaa !110
  %26 = trunc i64 %.011.i.i to i32
  br label %_ZNK6icu_7712RegexMatcher5startEiR10UErrorCode.exit

_ZNK6icu_7712RegexMatcher5startEiR10UErrorCode.exit: ; preds = %2, %9, %14, %23, %24
  %.0.i.i = phi i32 [ -1, %9 ], [ -1, %14 ], [ -1, %23 ], [ %26, %24 ], [ -1, %2 ]
  ret i32 %.0.i.i
}